; Function Attrs: mustprogress uwtable
define noundef zeroext i1 @_ZN3url18ConvertUTF16ToUTF8EPKtiPNS_12CanonOutputTIcEE(ptr noundef %0, i32 noundef %1, ptr noundef %2) local_unnamed_addr #0 {
  %4 = alloca i32, align 4
  %5 = alloca i32, align 4
  call void @llvm.lifetime.start.p0(i64 4, ptr nonnull %4) #7
  store i32 0, ptr %4, align 4, !tbaa !3
  %6 = icmp sgt i32 %1, 0
  br i1 %6, label %.lr.ph, label %._crit_edge

._crit_edge:                                      ; preds = %_ZN3url11ReadUTFCharEPKtPiiPj.exit, %3
  %.0.lcssa = phi i1 [ true, %3 ], [ %17, %_ZN3url11ReadUTFCharEPKtPiiPj.exit ]
  call void @llvm.lifetime.end.p0(i64 4, ptr nonnull %4) #7
  ret i1 %.0.lcssa

.lr.ph:                                           ; preds = %3, %_ZN3url11ReadUTFCharEPKtPiiPj.exit
  %.06 = phi i1 [ %17, %_ZN3url11ReadUTFCharEPKtPiiPj.exit ], [ true, %3 ]
  call void @llvm.lifetime.start.p0(i64 4, ptr nonnull %5) #7
  %7 = call noundef zeroext i1 @_ZN4base20ReadUnicodeCharacterEPKtiPiPj(ptr noundef %0, i32 noundef %1, ptr noundef nonnull %4, ptr noundef nonnull %5)
  br i1 %7, label %8, label %_ZN4base16IsValidCharacterEj.exit.thread6.i

8:                                                ; preds = %.lr.ph
  %9 = load i32, ptr %5, align 4, !tbaa !3
  %10 = icmp ult i32 %9, 55296
  %11 = add i32 %9, -57344
  %or.cond.i.i = icmp ult i32 %11, 7632
  %or.cond9.i.i = or i1 %10, %or.cond.i.i
  br i1 %or.cond9.i.i, label %_ZN3url11ReadUTFCharEPKtPiiPj.exit, label %12

12:                                               ; preds = %8
  %13 = add i32 %9, -65008
  %or.cond3.i.i = icmp ult i32 %13, 1049104
  %14 = and i32 %9, 65534
  %15 = icmp ne i32 %14, 65534
  %or.cond.i = and i1 %or.cond3.i.i, %15
  br i1 %or.cond.i, label %_ZN3url11ReadUTFCharEPKtPiiPj.exit, label %_ZN4base16IsValidCharacterEj.exit.thread6.i

_ZN4base16IsValidCharacterEj.exit.thread6.i:      ; preds = %12, %.lr.ph
  store i32 65533, ptr %5, align 4, !tbaa !3
  br label %_ZN3url11ReadUTFCharEPKtPiiPj.exit

_ZN3url11ReadUTFCharEPKtPiiPj.exit:               ; preds = %8, %12, %_ZN4base16IsValidCharacterEj.exit.thread6.i
  %16 = phi i32 [ 65533, %_ZN4base16IsValidCharacterEj.exit.thread6.i ], [ %9, %8 ], [ %9, %12 ]
  %.0.i = phi i1 [ false, %_ZN4base16IsValidCharacterEj.exit.thread6.i ], [ true, %8 ], [ true, %12 ]
  %17 = and i1 %.06, %.0.i
  call void @_ZN3url12DoAppendUTF8INS_12CanonOutputTIcEETnPFvhPT_EXadL_ZNS_18AppendCharToOutputEhPS2_EEEEvjS4_(i32 noundef %16, ptr noundef %2)
  call void @llvm.lifetime.end.p0(i64 4, ptr nonnull %5) #7
  %18 = load i32, ptr %4, align 4, !tbaa !3
  %19 = add nsw i32 %18, 1
  store i32 %19, ptr %4, align 4, !tbaa !3
  %20 = icmp slt i32 %19, %1
  br i1 %20, label %.lr.ph, label %._crit_edge, !llvm.loop !24
}